; Function Attrs: mustprogress nofree norecurse nosync nounwind willreturn memory(argmem: read) uwtable
define hidden noundef zeroext i1 @_ZN3sat12ddfw_wrapper20should_parallel_syncEv(ptr noundef nonnull readonly align 8 captures(none) dereferenceable(472) %0) local_unnamed_addr #5 align 2 {
  %2 = getelementptr inbounds nuw i8, ptr %0, i64 448
  %3 = load ptr, ptr %2, align 8, !tbaa !10
  %.not = icmp ne ptr %3, null
  %4 = getelementptr inbounds nuw i8, ptr %0, i64 272
  %5 = load i64, ptr %4, align 8
  %6 = getelementptr inbounds nuw i8, ptr %0, i64 464
  %7 = load i64, ptr %6, align 8
  %8 = icmp uge i64 %5, %7
  %9 = select i1 %.not, i1 %8, i1 false
  ret i1 %9
}